; Function Attrs: nofree nounwind uwtable
define i64 @tj3YUVBufSize(i32 noundef %0, i32 noundef %1, i32 noundef %2, i32 noundef %3) local_unnamed_addr #6 {
  %5 = icmp slt i32 %1, 1
  br i1 %5, label %10, label %6

6:                                                ; preds = %4
  %7 = tail call range(i32 0, 32) i32 @llvm.ctpop.i32(i32 %1)
  %8 = icmp ugt i32 %7, 1
  %9 = icmp ugt i32 %3, 6
  %or.cond3 = or i1 %8, %9
  br i1 %or.cond3, label %10, label %13

10:                                               ; preds = %6, %4
  %11 = tail call align 16 ptr @llvm.threadlocal.address.p0(ptr align 16 @errStr)
  %12 = tail call i32 (ptr, i64, ptr, ...) @snprintf(ptr noundef nonnull dereferenceable(1) %11, i64 noundef 200, ptr noundef nonnull @.str, ptr noundef nonnull @tj3YUVBufSize.FUNCTION_NAME, ptr noundef nonnull @.str.1) #26
  br label %.loopexit

13:                                               ; preds = %6
  %14 = icmp ne i32 %3, 3
  %15 = icmp slt i32 %0, 1
  %16 = zext nneg i32 %0 to i64
  %17 = zext nneg i32 %3 to i64
  %18 = getelementptr inbounds [7 x i32], ptr @tjMCUWidth, i64 0, i64 %17
  %19 = add nsw i64 %16, -1
  %20 = tail call align 16 ptr @llvm.threadlocal.address.p0(ptr align 16 @errStr)
  %21 = icmp slt i32 %2, 1
  %22 = zext nneg i32 %2 to i64
  %23 = getelementptr inbounds [7 x i32], ptr @tjMCUHeight, i64 0, i64 %17
  %24 = add nsw i64 %22, -1
  %25 = add nsw i32 %1, -1
  %26 = sub nsw i32 0, %1
  br i1 %21, label %.split.us, label %.split

.split.us:                                        ; preds = %13
  br i1 %15, label %.sink.split.i.us, label %27

27:                                               ; preds = %.split.us
  %28 = load i32, ptr %18, align 4
  %29 = sdiv i32 %28, 8
  %30 = sext i32 %29 to i64
  %31 = add nsw i64 %19, %30
  %32 = sub nsw i32 0, %29
  %33 = sext i32 %32 to i64
  %34 = and i64 %31, %33
  %35 = icmp ugt i64 %34, 2147483647
  br i1 %35, label %.sink.split.i.us, label %tj3YUVPlaneHeight.exit.thread

.sink.split.i.us:                                 ; preds = %27, %.split.us
  %.str.30.sink.i.us = phi ptr [ @.str.1, %.split.us ], [ @.str.30, %27 ]
  %36 = tail call i32 (ptr, i64, ptr, ...) @snprintf(ptr noundef nonnull dereferenceable(1) %20, i64 noundef 200, ptr noundef nonnull @.str, ptr noundef nonnull @tj3YUVPlaneWidth.FUNCTION_NAME, ptr noundef nonnull %.str.30.sink.i.us) #26
  br label %tj3YUVPlaneHeight.exit.thread

.split:                                           ; preds = %13
  br i1 %15, label %37, label %.split.split

37:                                               ; preds = %.split
  %38 = tail call i32 (ptr, i64, ptr, ...) @snprintf(ptr noundef nonnull dereferenceable(1) %20, i64 noundef 200, ptr noundef nonnull @.str, ptr noundef nonnull @tj3YUVPlaneWidth.FUNCTION_NAME, ptr noundef nonnull @.str.1) #26
  %39 = load i32, ptr %23, align 4
  %40 = sdiv i32 %39, 8
  %41 = sext i32 %40 to i64
  %42 = add nsw i64 %24, %41
  %43 = sub nsw i32 0, %40
  %44 = sext i32 %43 to i64
  %45 = and i64 %42, %44
  %46 = icmp ugt i64 %45, 2147483647
  br i1 %46, label %tj3YUVPlaneHeight.exit.thread, label %.loopexit

.split.split:                                     ; preds = %.split
  %47 = load i32, ptr %18, align 4
  %48 = sdiv i32 %47, 8
  %49 = sext i32 %48 to i64
  %50 = add nsw i64 %19, %49
  %51 = sub nsw i32 0, %48
  %52 = sext i32 %51 to i64
  %53 = and i64 %50, %52
  %54 = shl nsw i64 %53, 3
  %55 = sext i32 %47 to i64
  br label %56

56:                                               ; preds = %.split.split, %80
  %.03043 = phi i64 [ 0, %.split.split ], [ %85, %80 ]
  %.03142 = phi i32 [ 0, %.split.split ], [ %86, %80 ]
  %57 = icmp eq i32 %.03142, 0
  br i1 %57, label %60, label %58

58:                                               ; preds = %56
  %59 = udiv i64 %54, %55
  br label %60

60:                                               ; preds = %58, %56
  %.0.i = phi i64 [ %59, %58 ], [ %53, %56 ]
  %61 = icmp ugt i64 %.0.i, 2147483647
  br i1 %61, label %.sink.split.i, label %tj3YUVPlaneWidth.exit

.sink.split.i:                                    ; preds = %60
  %62 = tail call i32 (ptr, i64, ptr, ...) @snprintf(ptr noundef nonnull dereferenceable(1) %20, i64 noundef 200, ptr noundef nonnull @.str, ptr noundef nonnull @tj3YUVPlaneWidth.FUNCTION_NAME, ptr noundef nonnull @.str.30) #26
  br label %tj3YUVPlaneWidth.exit

tj3YUVPlaneWidth.exit:                            ; preds = %60, %.sink.split.i
  %.1.i = phi i64 [ %.0.i, %60 ], [ 0, %.sink.split.i ]
  %63 = trunc nuw nsw i64 %.1.i to i32
  %64 = load i32, ptr %23, align 4
  %65 = sdiv i32 %64, 8
  %66 = sext i32 %65 to i64
  %67 = add nsw i64 %24, %66
  %68 = sub nsw i32 0, %65
  %69 = sext i32 %68 to i64
  %70 = and i64 %67, %69
  br i1 %57, label %75, label %71

71:                                               ; preds = %tj3YUVPlaneWidth.exit
  %72 = shl nsw i64 %70, 3
  %73 = sext i32 %64 to i64
  %74 = udiv i64 %72, %73
  br label %75

75:                                               ; preds = %71, %tj3YUVPlaneWidth.exit
  %.0.i39 = phi i64 [ %74, %71 ], [ %70, %tj3YUVPlaneWidth.exit ]
  %76 = icmp ugt i64 %.0.i39, 2147483647
  br i1 %76, label %tj3YUVPlaneHeight.exit.thread, label %tj3YUVPlaneHeight.exit

tj3YUVPlaneHeight.exit.thread:                    ; preds = %75, %27, %.sink.split.i.us, %37
  %.us-phi = phi ptr [ @.str.31, %37 ], [ @.str.1, %.sink.split.i.us ], [ @.str.1, %27 ], [ @.str.31, %75 ]
  %77 = tail call i32 (ptr, i64, ptr, ...) @snprintf(ptr noundef nonnull dereferenceable(1) %20, i64 noundef 200, ptr noundef nonnull @.str, ptr noundef nonnull @tj3YUVPlaneHeight.FUNCTION_NAME, ptr noundef nonnull %.us-phi) #26
  br label %.loopexit

tj3YUVPlaneHeight.exit:                           ; preds = %75
  %78 = icmp eq i64 %.1.i, 0
  %79 = icmp eq i64 %.0.i39, 0
  %or.cond5 = or i1 %78, %79
  br i1 %or.cond5, label %.loopexit, label %80

80:                                               ; preds = %tj3YUVPlaneHeight.exit
  %81 = add i32 %25, %63
  %82 = and i32 %81, %26
  %83 = zext nneg i32 %82 to i64
  %84 = mul nuw nsw i64 %.0.i39, %83
  %85 = add i64 %84, %.03043
  %86 = add nuw nsw i32 %.03142, 1
  %87 = icmp ult i32 %.03142, 2
  %88 = and i1 %14, %87
  br i1 %88, label %56, label %.loopexit, !llvm.loop !4

.loopexit:                                        ; preds = %tj3YUVPlaneHeight.exit, %80, %37, %tj3YUVPlaneHeight.exit.thread, %10
  %.0 = phi i64 [ 0, %10 ], [ 0, %tj3YUVPlaneHeight.exit.thread ], [ 0, %37 ], [ %85, %80 ], [ 0, %tj3YUVPlaneHeight.exit ]
  ret i64 %.0
}